target datalayout = "e-m:e-p270:32:32-p271:32:32-p272:64:64-i64:64-i128:128-f80:128-n8:16:32:64-S128"
target triple = "x86_64-pc-linux-gnu"

%struct.SDL_Surface = type { i32, i32, i32, i32, i32, ptr, i32, ptr, i32, i32, ptr, i32, ptr, i32, ptr, i32, %struct.SDL_Rect, %struct.SDL_BlitMap }
%struct.SDL_Rect = type { i32, i32, i32, i32 }
%struct.SDL_BlitMap = type { i32, ptr, ptr, %struct.SDL_BlitInfo, i32, i32 }
%struct.SDL_BlitInfo = type { ptr, ptr, i32, i32, i32, i32, ptr, ptr, i32, i32, i32, i32, ptr, ptr, ptr, ptr, ptr, ptr, i32, i32, i8, i8, i8, i8 }

; Function Attrs: nounwind uwtable
define internal zeroext i1 @SDL_FlipSurfaceVertical(ptr noundef %0) #0 {
  %2 = alloca i1, align 1
  %3 = alloca ptr, align 8
  %4 = alloca i8, align 1
  %5 = alloca ptr, align 8
  %6 = alloca ptr, align 8
  %7 = alloca ptr, align 8
  %8 = alloca i32, align 4
  %9 = alloca i32, align 4
  store ptr %0, ptr %3, align 8
  call void @llvm.lifetime.start.p0(i64 1, ptr %4) #8
  call void @llvm.lifetime.start.p0(i64 8, ptr %5) #8
  call void @llvm.lifetime.start.p0(i64 8, ptr %6) #8
  call void @llvm.lifetime.start.p0(i64 8, ptr %7) #8
  call void @llvm.lifetime.start.p0(i64 4, ptr %8) #8
  %10 = load ptr, ptr %3, align 8
  %11 = getelementptr inbounds nuw %struct.SDL_Surface, ptr %10, i32 0, i32 3
  %12 = load i32, ptr %11, align 4
  %13 = icmp sle i32 %12, 1
  br i1 %13, label %14, label %15

14:                                               ; preds = %1
  store i1 true, ptr %2, align 1
  store i32 1, ptr %9, align 4
  br label %106

15:                                               ; preds = %1
  %16 = load ptr, ptr %3, align 8
  %17 = getelementptr inbounds nuw %struct.SDL_Surface, ptr %16, i32 0, i32 5
  %18 = load ptr, ptr %17, align 8
  store ptr %18, ptr %5, align 8
  %19 = load ptr, ptr %5, align 8
  %20 = load ptr, ptr %3, align 8
  %21 = getelementptr inbounds nuw %struct.SDL_Surface, ptr %20, i32 0, i32 3
  %22 = load i32, ptr %21, align 4
  %23 = sub nsw i32 %22, 1
  %24 = load ptr, ptr %3, align 8
  %25 = getelementptr inbounds nuw %struct.SDL_Surface, ptr %24, i32 0, i32 4
  %26 = load i32, ptr %25, align 8
  %27 = mul nsw i32 %23, %26
  %28 = sext i32 %27 to i64
  %29 = getelementptr inbounds i8, ptr %19, i64 %28
  store ptr %29, ptr %6, align 8
  %30 = load ptr, ptr %3, align 8
  %31 = getelementptr inbounds nuw %struct.SDL_Surface, ptr %30, i32 0, i32 4
  %32 = load i32, ptr %31, align 8
  %33 = sext i32 %32 to i64
  %34 = mul i64 1, %33
  %35 = icmp ult i64 %34, 128
  %36 = zext i1 %35 to i8
  store i8 %36, ptr %4, align 1
  %37 = load i8, ptr %4, align 1, !range !3, !noundef !4
  %38 = trunc i8 %37 to i1
  br i1 %38, label %39, label %46

39:                                               ; preds = %15
  %40 = load ptr, ptr %3, align 8
  %41 = getelementptr inbounds nuw %struct.SDL_Surface, ptr %40, i32 0, i32 4
  %42 = load i32, ptr %41, align 8
  %43 = sext i32 %42 to i64
  %44 = mul i64 1, %43
  %45 = alloca i8, i64 %44, align 16
  br label %53

46:                                               ; preds = %15
  %47 = load ptr, ptr %3, align 8
  %48 = getelementptr inbounds nuw %struct.SDL_Surface, ptr %47, i32 0, i32 4
  %49 = load i32, ptr %48, align 8
  %50 = sext i32 %49 to i64
  %51 = mul i64 1, %50
  %52 = call noalias ptr @SDL_malloc_REAL(i64 noundef %51)
  br label %53

53:                                               ; preds = %46, %39
  %54 = phi ptr [ %45, %39 ], [ %52, %46 ]
  store ptr %54, ptr %7, align 8
  %55 = load ptr, ptr %7, align 8
  %56 = icmp ne ptr %55, null
  br i1 %56, label %58, label %57

57:                                               ; preds = %53
  store i1 false, ptr %2, align 1
  store i32 1, ptr %9, align 4
  br label %106

58:                                               ; preds = %53
  %59 = load ptr, ptr %3, align 8
  %60 = getelementptr inbounds nuw %struct.SDL_Surface, ptr %59, i32 0, i32 3
  %61 = load i32, ptr %60, align 4
  %62 = sdiv i32 %61, 2
  store i32 %62, ptr %8, align 4
  br label %63

63:                                               ; preds = %67, %58
  %64 = load i32, ptr %8, align 4
  %65 = add nsw i32 %64, -1
  store i32 %65, ptr %8, align 4
  %66 = icmp ne i32 %64, 0
  br i1 %66, label %67, label %99

67:                                               ; preds = %63
  %68 = load ptr, ptr %7, align 8
  %69 = load ptr, ptr %5, align 8
  %70 = load ptr, ptr %3, align 8
  %71 = getelementptr inbounds nuw %struct.SDL_Surface, ptr %70, i32 0, i32 4
  %72 = load i32, ptr %71, align 8
  %73 = sext i32 %72 to i64
  call void @llvm.memcpy.p0.p0.i64(ptr align 1 %68, ptr align 1 %69, i64 %73, i1 false)
  %74 = load ptr, ptr %5, align 8
  %75 = load ptr, ptr %6, align 8
  %76 = load ptr, ptr %3, align 8
  %77 = getelementptr inbounds nuw %struct.SDL_Surface, ptr %76, i32 0, i32 4
  %78 = load i32, ptr %77, align 8
  %79 = sext i32 %78 to i64
  call void @llvm.memcpy.p0.p0.i64(ptr align 1 %74, ptr align 1 %75, i64 %79, i1 false)
  %80 = load ptr, ptr %6, align 8
  %81 = load ptr, ptr %7, align 8
  %82 = load ptr, ptr %3, align 8
  %83 = getelementptr inbounds nuw %struct.SDL_Surface, ptr %82, i32 0, i32 4
  %84 = load i32, ptr %83, align 8
  %85 = sext i32 %84 to i64
  call void @llvm.memcpy.p0.p0.i64(ptr align 1 %80, ptr align 1 %81, i64 %85, i1 false)
  %86 = load ptr, ptr %3, align 8
  %87 = getelementptr inbounds nuw %struct.SDL_Surface, ptr %86, i32 0, i32 4
  %88 = load i32, ptr %87, align 8
  %89 = load ptr, ptr %5, align 8
  %90 = sext i32 %88 to i64
  %91 = getelementptr inbounds i8, ptr %89, i64 %90
  store ptr %91, ptr %5, align 8
  %92 = load ptr, ptr %3, align 8
  %93 = getelementptr inbounds nuw %struct.SDL_Surface, ptr %92, i32 0, i32 4
  %94 = load i32, ptr %93, align 8
  %95 = load ptr, ptr %6, align 8
  %96 = sext i32 %94 to i64
  %97 = sub i64 0, %96
  %98 = getelementptr inbounds i8, ptr %95, i64 %97
  store ptr %98, ptr %6, align 8
  br label %63, !llvm.loop !18

99:                                               ; preds = %63
  %100 = load i8, ptr %4, align 1, !range !3, !noundef !4
  %101 = trunc i8 %100 to i1
  br i1 %101, label %102, label %103

102:                                              ; preds = %99
  br label %105

103:                                              ; preds = %99
  %104 = load ptr, ptr %7, align 8
  call void @SDL_free_REAL(ptr noundef %104)
  br label %105

105:                                              ; preds = %103, %102
  store i1 true, ptr %2, align 1
  store i32 1, ptr %9, align 4
  br label %106

106:                                              ; preds = %105, %57, %14
  call void @llvm.lifetime.end.p0(i64 4, ptr %8) #8
  call void @llvm.lifetime.end.p0(i64 8, ptr %7) #8
  call void @llvm.lifetime.end.p0(i64 8, ptr %6) #8
  call void @llvm.lifetime.end.p0(i64 8, ptr %5) #8
  call void @llvm.lifetime.end.p0(i64 1, ptr %4) #8
  %107 = load i1, ptr %2, align 1
  ret i1 %107
}