; Function Attrs: nounwind uwtable
define internal fastcc noundef zeroext i1 @SDL_FlipSurfaceVertical(ptr noundef readonly captures(none) %0) unnamed_addr #2 {
  %2 = getelementptr inbounds nuw i8, ptr %0, i64 12
  %3 = load i32, ptr %2, align 4
  %4 = icmp slt i32 %3, 2
  br i1 %4, label %34, label %5

5:                                                ; preds = %1
  %6 = getelementptr inbounds nuw i8, ptr %0, i64 24
  %7 = load ptr, ptr %6, align 8
  %8 = add nsw i32 %3, -1
  %9 = getelementptr inbounds nuw i8, ptr %0, i64 16
  %10 = load i32, ptr %9, align 8
  %11 = mul nsw i32 %10, %8
  %12 = sext i32 %11 to i64
  %13 = getelementptr inbounds i8, ptr %7, i64 %12
  %14 = sext i32 %10 to i64
  %15 = icmp ult i32 %10, 128
  br i1 %15, label %.thread, label %17

.thread:                                          ; preds = %5
  %16 = alloca i8, i64 %14, align 16
  br label %19

17:                                               ; preds = %5
  %18 = tail call noalias ptr @SDL_malloc_REAL(i64 noundef %14) #10
  %.not = icmp eq ptr %18, null
  br i1 %.not, label %34, label %._crit_edge39

._crit_edge39:                                    ; preds = %17
  %.pre = load i32, ptr %2, align 4
  br label %19

19:                                               ; preds = %._crit_edge39, %.thread
  %20 = phi i32 [ %3, %.thread ], [ %.pre, %._crit_edge39 ]
  %21 = phi ptr [ %16, %.thread ], [ %18, %._crit_edge39 ]
  %.off = add i32 %20, 1
  %.not3335 = icmp ult i32 %.off, 3
  br i1 %.not3335, label %._crit_edge, label %.lr.ph.preheader

.lr.ph.preheader:                                 ; preds = %19
  %22 = sdiv i32 %20, 2
  %.pre40 = load i32, ptr %9, align 8
  br label %.lr.ph

.lr.ph:                                           ; preds = %.lr.ph.preheader, %.lr.ph
  %23 = phi i32 [ %28, %.lr.ph ], [ %.pre40, %.lr.ph.preheader ]
  %.038 = phi i32 [ %24, %.lr.ph ], [ %22, %.lr.ph.preheader ]
  %.02837 = phi ptr [ %32, %.lr.ph ], [ %13, %.lr.ph.preheader ]
  %.02936 = phi ptr [ %30, %.lr.ph ], [ %7, %.lr.ph.preheader ]
  %24 = add nsw i32 %.038, -1
  %25 = sext i32 %23 to i64
  call void @llvm.memcpy.p0.p0.i64(ptr nonnull align 1 %21, ptr align 1 %.02936, i64 %25, i1 false)
  tail call void @llvm.memcpy.p0.p0.i64(ptr align 1 %.02936, ptr align 1 %.02837, i64 %25, i1 false)
  %26 = load i32, ptr %9, align 8
  %27 = sext i32 %26 to i64
  call void @llvm.memcpy.p0.p0.i64(ptr align 1 %.02837, ptr nonnull align 1 %21, i64 %27, i1 false)
  %28 = load i32, ptr %9, align 8
  %29 = sext i32 %28 to i64
  %30 = getelementptr inbounds i8, ptr %.02936, i64 %29
  %31 = sub nsw i64 0, %29
  %32 = getelementptr inbounds i8, ptr %.02837, i64 %31
  %.not33 = icmp eq i32 %24, 0
  br i1 %.not33, label %._crit_edge, label %.lr.ph, !llvm.loop !17

._crit_edge:                                      ; preds = %.lr.ph, %19
  br i1 %15, label %34, label %33

33:                                               ; preds = %._crit_edge
  call void @SDL_free_REAL(ptr noundef nonnull %21) #10
  br label %34

34:                                               ; preds = %33, %._crit_edge, %17, %1
  %.027 = phi i1 [ true, %1 ], [ false, %17 ], [ true, %._crit_edge ], [ true, %33 ]
  ret i1 %.027
}